target datalayout = "e-m:e-p270:32:32-p271:32:32-p272:64:64-i64:64-i128:128-f80:128-n8:16:32:64-S128"
target triple = "x86_64-unknown-linux-gnu"

%struct.Argument_BlockNumber = type { i32, ptr }

@.str.95 = private unnamed_addr constant [47 x i8] c"out of memory allocating space for option list\00", align 1

; Function Attrs: nounwind sspstrong uwtable
define internal i32 @parse_block_number(ptr noundef %in, ptr noundef %out) #0 {
entry:
  %retval = alloca i32, align 4
  %in.addr = alloca ptr, align 8
  %out.addr = alloca ptr, align 8
  %p = alloca ptr, align 8
  %q = alloca ptr, align 8
  %s = alloca ptr, align 8
  %end = alloca ptr, align 8
  %i = alloca i64, align 8
  %entry1 = alloca i32, align 4
  store ptr %in, ptr %in.addr, align 8
  store ptr %out, ptr %out.addr, align 8
  %0 = load ptr, ptr %in.addr, align 8
  %1 = load i8, ptr %0, align 1
  %conv = sext i8 %1 to i32
  %cmp = icmp eq i32 %conv, 0
  br i1 %cmp, label %if.then, label %if.end

if.then:                                          ; preds = %entry
  store i32 0, ptr %retval, align 4
  br label %return

if.end:                                           ; preds = %entry
  %2 = load ptr, ptr %in.addr, align 8
  %call = call ptr @local_strdup(ptr noundef %2)
  store ptr %call, ptr %s, align 8
  %3 = load ptr, ptr %out.addr, align 8
  %num_entries = getelementptr inbounds %struct.Argument_BlockNumber, ptr %3, i32 0, i32 0
  store i32 1, ptr %num_entries, align 8
  %4 = load ptr, ptr %s, align 8
  %call3 = call ptr @strchr(ptr noundef %4, i32 noundef 44) #9
  store ptr %call3, ptr %p, align 8
  br label %for.cond

for.cond:                                         ; preds = %for.inc, %if.end
  %5 = load ptr, ptr %p, align 8
  %tobool = icmp ne ptr %5, null
  br i1 %tobool, label %for.body, label %for.end

for.body:                                         ; preds = %for.cond
  br label %for.inc

for.inc:                                          ; preds = %for.body
  %6 = load ptr, ptr %out.addr, align 8
  %num_entries4 = getelementptr inbounds %struct.Argument_BlockNumber, ptr %6, i32 0, i32 0
  %7 = load i32, ptr %num_entries4, align 8
  %inc = add i32 %7, 1
  store i32 %inc, ptr %num_entries4, align 8
  %8 = load ptr, ptr %p, align 8
  %incdec.ptr = getelementptr inbounds i8, ptr %8, i32 1
  store ptr %incdec.ptr, ptr %p, align 8
  %call5 = call ptr @strchr(ptr noundef %incdec.ptr, i32 noundef 44) #9
  store ptr %call5, ptr %p, align 8
  br label %for.cond, !llvm.loop !17

for.end:                                          ; preds = %for.cond
  %9 = load ptr, ptr %out.addr, align 8
  %num_entries6 = getelementptr inbounds %struct.Argument_BlockNumber, ptr %9, i32 0, i32 0
  %10 = load i32, ptr %num_entries6, align 8
  %conv7 = zext i32 %10 to i64
  %call8 = call ptr @safe_malloc_mul_2op_(i64 noundef 4, i64 noundef %conv7)
  %11 = load ptr, ptr %out.addr, align 8
  %entries = getelementptr inbounds %struct.Argument_BlockNumber, ptr %11, i32 0, i32 1
  store ptr %call8, ptr %entries, align 8
  %cmp9 = icmp eq ptr null, %call8
  br i1 %cmp9, label %if.then11, label %if.end12

if.then11:                                        ; preds = %for.end
  call void @die(ptr noundef @.str.95)
  br label %if.end12

if.end12:                                         ; preds = %if.then11, %for.end
  store i32 0, ptr %entry1, align 4
  %12 = load ptr, ptr %s, align 8
  store ptr %12, ptr %q, align 8
  br label %while.cond

while.cond:                                       ; preds = %if.end31, %if.end12
  %13 = load ptr, ptr %q, align 8
  %tobool13 = icmp ne ptr %13, null
  br i1 %tobool13, label %while.body, label %while.end

while.body:                                       ; preds = %while.cond
  %14 = load ptr, ptr %q, align 8
  %call14 = call ptr @strchr(ptr noundef %14, i32 noundef 44) #9
  store ptr %call14, ptr %p, align 8
  %cmp15 = icmp ne ptr null, %call14
  br i1 %cmp15, label %if.then17, label %if.end19

if.then17:                                        ; preds = %while.body
  %15 = load ptr, ptr %p, align 8
  %incdec.ptr18 = getelementptr inbounds i8, ptr %15, i32 1
  store ptr %incdec.ptr18, ptr %p, align 8
  store i8 0, ptr %15, align 1
  br label %if.end19

if.end19:                                         ; preds = %if.then17, %while.body
  %call20 = call ptr @__ctype_b_loc() #11
  %16 = load ptr, ptr %call20, align 8
  %17 = load ptr, ptr %q, align 8
  %18 = load i8, ptr %17, align 1
  %conv21 = sext i8 %18 to i32
  %idxprom = sext i32 %conv21 to i64
  %arrayidx = getelementptr inbounds i16, ptr %16, i64 %idxprom
  %19 = load i16, ptr %arrayidx, align 2
  %conv22 = zext i16 %19 to i32
  %and = and i32 %conv22, 2048
  %tobool23 = icmp ne i32 %and, 0
  br i1 %tobool23, label %lor.lhs.false, label %if.then30

lor.lhs.false:                                    ; preds = %if.end19
  %20 = load ptr, ptr %q, align 8
  %call24 = call i64 @strtol(ptr noundef %20, ptr noundef %end, i32 noundef 10) #10
  store i64 %call24, ptr %i, align 8
  %cmp25 = icmp slt i64 %call24, 0
  br i1 %cmp25, label %if.then30, label %lor.lhs.false27

lor.lhs.false27:                                  ; preds = %lor.lhs.false
  %21 = load ptr, ptr %end, align 8
  %22 = load i8, ptr %21, align 1
  %conv28 = sext i8 %22 to i32
  %tobool29 = icmp ne i32 %conv28, 0
  br i1 %tobool29, label %if.then30, label %if.end31

if.then30:                                        ; preds = %lor.lhs.false27, %lor.lhs.false, %if.end19
  %23 = load ptr, ptr %s, align 8
  call void @free(ptr noundef %23) #10
  store i32 0, ptr %retval, align 4
  br label %return

if.end31:                                         ; preds = %lor.lhs.false27
  %24 = load i64, ptr %i, align 8
  %conv32 = trunc i64 %24 to i32
  %25 = load ptr, ptr %out.addr, align 8
  %entries33 = getelementptr inbounds %struct.Argument_BlockNumber, ptr %25, i32 0, i32 1
  %26 = load ptr, ptr %entries33, align 8
  %27 = load i32, ptr %entry1, align 4
  %inc34 = add i32 %27, 1
  store i32 %inc34, ptr %entry1, align 4
  %idxprom35 = zext i32 %27 to i64
  %arrayidx36 = getelementptr inbounds i32, ptr %26, i64 %idxprom35
  store i32 %conv32, ptr %arrayidx36, align 4
  %28 = load ptr, ptr %p, align 8
  store ptr %28, ptr %q, align 8
  br label %while.cond, !llvm.loop !18

while.end:                                        ; preds = %while.cond
  %29 = load ptr, ptr %s, align 8
  call void @free(ptr noundef %29) #10
  store i32 1, ptr %retval, align 4
  br label %return

return:                                           ; preds = %while.end, %if.then30, %if.then
  %30 = load i32, ptr %retval, align 4
  ret i32 %30
}