; Function Attrs: nounwind sspstrong uwtable
define internal fastcc range(i32 0, 2) i32 @parse_block_number(ptr noundef %in, ptr noundef captures(none) %out) unnamed_addr #1 {
entry:
  %end = alloca ptr, align 8
  %0 = load i8, ptr %in, align 1
  %cmp = icmp eq i8 %0, 0
  br i1 %cmp, label %return, label %if.end

if.end:                                           ; preds = %entry
  %call = tail call ptr @local_strdup(ptr noundef nonnull %in) #20
  store i32 1, ptr %out, align 8
  %call3 = tail call ptr @strchr(ptr noundef nonnull dereferenceable(1) %call, i32 noundef 44) #21
  %tobool.not15 = icmp eq ptr %call3, null
  br i1 %tobool.not15, label %for.end, label %for.inc

for.inc:                                          ; preds = %if.end, %for.inc
  %1 = phi i32 [ %inc, %for.inc ], [ 1, %if.end ]
  %p.016 = phi ptr [ %call5, %for.inc ], [ %call3, %if.end ]
  %inc = add i32 %1, 1
  store i32 %inc, ptr %out, align 8
  %incdec.ptr = getelementptr inbounds nuw i8, ptr %p.016, i64 1
  %call5 = tail call ptr @strchr(ptr noundef nonnull dereferenceable(1) %incdec.ptr, i32 noundef 44) #21
  %tobool.not = icmp eq ptr %call5, null
  br i1 %tobool.not, label %for.end.loopexit, label %for.inc, !llvm.loop !17

for.end.loopexit:                                 ; preds = %for.inc
  %2 = zext i32 %inc to i64
  br label %for.end

for.end:                                          ; preds = %for.end.loopexit, %if.end
  %conv7 = phi i64 [ %2, %for.end.loopexit ], [ 1, %if.end ]
  %call8 = tail call ptr @safe_malloc_mul_2op_(i64 noundef 4, i64 noundef %conv7) #20
  %entries = getelementptr inbounds nuw i8, ptr %out, i64 8
  store ptr %call8, ptr %entries, align 8
  %cmp9 = icmp eq ptr %call8, null
  br i1 %cmp9, label %if.then11, label %if.end12

if.then11:                                        ; preds = %for.end
  tail call void @die(ptr noundef nonnull @.str.95) #20
  br label %if.end12

if.end12:                                         ; preds = %if.then11, %for.end
  %call20 = tail call ptr @__ctype_b_loc() #23
  br label %while.body

while.body:                                       ; preds = %if.end12, %if.end31
  %entry1.018 = phi i32 [ 0, %if.end12 ], [ %inc34, %if.end31 ]
  %q.017 = phi ptr [ %call, %if.end12 ], [ %p.1, %if.end31 ]
  %call14 = tail call ptr @strchr(ptr noundef nonnull dereferenceable(1) %q.017, i32 noundef 44) #21
  %cmp15.not = icmp eq ptr %call14, null
  br i1 %cmp15.not, label %if.end19, label %if.then17

if.then17:                                        ; preds = %while.body
  %incdec.ptr18 = getelementptr inbounds nuw i8, ptr %call14, i64 1
  store i8 0, ptr %call14, align 1
  br label %if.end19

if.end19:                                         ; preds = %if.then17, %while.body
  %p.1 = phi ptr [ %incdec.ptr18, %if.then17 ], [ null, %while.body ]
  %3 = load ptr, ptr %call20, align 8
  %4 = load i8, ptr %q.017, align 1
  %idxprom = sext i8 %4 to i64
  %arrayidx = getelementptr inbounds i16, ptr %3, i64 %idxprom
  %5 = load i16, ptr %arrayidx, align 2
  %6 = and i16 %5, 2048
  %tobool23.not = icmp eq i16 %6, 0
  br i1 %tobool23.not, label %return.sink.split, label %lor.lhs.false

lor.lhs.false:                                    ; preds = %if.end19
  %call24 = call i64 @strtol(ptr noundef nonnull %q.017, ptr noundef nonnull %end, i32 noundef 10) #20
  %cmp25 = icmp slt i64 %call24, 0
  br i1 %cmp25, label %return.sink.split, label %lor.lhs.false27

lor.lhs.false27:                                  ; preds = %lor.lhs.false
  %7 = load ptr, ptr %end, align 8
  %8 = load i8, ptr %7, align 1
  %tobool29.not = icmp eq i8 %8, 0
  br i1 %tobool29.not, label %if.end31, label %return.sink.split

if.end31:                                         ; preds = %lor.lhs.false27
  %conv32 = trunc i64 %call24 to i32
  %9 = load ptr, ptr %entries, align 8
  %inc34 = add i32 %entry1.018, 1
  %idxprom35 = zext i32 %entry1.018 to i64
  %arrayidx36 = getelementptr inbounds nuw i32, ptr %9, i64 %idxprom35
  store i32 %conv32, ptr %arrayidx36, align 4
  %tobool13.not = icmp eq ptr %p.1, null
  br i1 %tobool13.not, label %return.sink.split, label %while.body, !llvm.loop !18

return.sink.split:                                ; preds = %if.end31, %if.end19, %lor.lhs.false, %lor.lhs.false27
  %retval.0.ph = phi i32 [ 0, %lor.lhs.false27 ], [ 0, %lor.lhs.false ], [ 0, %if.end19 ], [ 1, %if.end31 ]
  tail call void @free(ptr noundef %call) #20
  br label %return

return:                                           ; preds = %return.sink.split, %entry
  %retval.0 = phi i32 [ 0, %entry ], [ %retval.0.ph, %return.sink.split ]
  ret i32 %retval.0
}